; Function Attrs: mustprogress nofree norecurse nosync nounwind willreturn memory(read, inaccessiblemem: none) uwtable
define dso_local i64 @hdr_count_at_index(ptr nocapture noundef readonly %h, i32 noundef %index) local_unnamed_addr #13 {
entry:
  %normalizing_index_offset.i.i = getelementptr inbounds i8, ptr %h, i64 64
  %0 = load i32, ptr %normalizing_index_offset.i.i, align 8
  %cmp.i.i = icmp eq i32 %0, 0
  br i1 %cmp.i.i, label %counts_get_normalised.exit, label %if.end.i.i

if.end.i.i:                                       ; preds = %entry
  %sub.i.i = sub nsw i32 %index, %0
  %cmp2.i.i = icmp slt i32 %sub.i.i, 0
  %counts_len.i.i = getelementptr inbounds i8, ptr %h, i64 80
  %1 = load i32, ptr %counts_len.i.i, align 8
  %cmp5.not.i.i = icmp slt i32 %sub.i.i, %1
  %sub8.i.i = sub nsw i32 0, %1
  %spec.select.i.i = select i1 %cmp5.not.i.i, i32 0, i32 %sub8.i.i
  %adjustment.0.i.i = select i1 %cmp2.i.i, i32 %1, i32 %spec.select.i.i
  %add.i.i = add nsw i32 %adjustment.0.i.i, %sub.i.i
  br label %counts_get_normalised.exit

counts_get_normalised.exit:                       ; preds = %entry, %if.end.i.i
  %retval.0.i.i = phi i32 [ %add.i.i, %if.end.i.i ], [ %index, %entry ]
  %2 = getelementptr i8, ptr %h, i64 96
  %h.val.i = load ptr, ptr %2, align 8
  %idxprom.i.i = sext i32 %retval.0.i.i to i64
  %arrayidx.i.i = getelementptr inbounds i64, ptr %h.val.i, i64 %idxprom.i.i
  %3 = load i64, ptr %arrayidx.i.i, align 8
  ret i64 %3
}